target datalayout = "e-m:e-p270:32:32-p271:32:32-p272:64:64-i64:64-i128:128-f80:128-n8:16:32:64-S128"
target triple = "x86_64-pc-linux-gnu"

%struct.crypto_ex_data_st = type { ptr }
%union.crypto_mutex_st = type { double, [48 x i8] }
%struct.dsa_st = type { i64, ptr, ptr, ptr, ptr, ptr, ptr, ptr, i32, %union.crypto_mutex_st, ptr, i32, %struct.crypto_ex_data_st }

@.str.4 = private unnamed_addr constant [122 x i8] c"generated/home/dtcxzyw/WorkSpace/Projects/compilers/llvm-opt-benchmark/bench/libquic/libquic/boringssl/crypto/evp/print.c\00", align 1
@.str.31 = private unnamed_addr constant [15 x i8] c"DSA-Parameters\00", align 1
@.str.32 = private unnamed_addr constant [12 x i8] c"Private-Key\00", align 1
@.str.33 = private unnamed_addr constant [11 x i8] c"Public-Key\00", align 1
@.str.34 = private unnamed_addr constant [14 x i8] c"%s: (%d bit)\0A\00", align 1
@.str.35 = private unnamed_addr constant [6 x i8] c"priv:\00", align 1
@.str.36 = private unnamed_addr constant [6 x i8] c"pub: \00", align 1
@.str.37 = private unnamed_addr constant [6 x i8] c"P:   \00", align 1
@.str.38 = private unnamed_addr constant [6 x i8] c"Q:   \00", align 1
@.str.39 = private unnamed_addr constant [6 x i8] c"G:   \00", align 1

; Function Attrs: nounwind uwtable
define internal void @update_buflen(ptr noundef %0, ptr noundef %1) #0 {
  %3 = alloca ptr, align 8
  %4 = alloca ptr, align 8
  %5 = alloca i64, align 8
  %6 = alloca i32, align 4
  store ptr %0, ptr %3, align 8, !tbaa !60
  store ptr %1, ptr %4, align 8, !tbaa !61
  call void @llvm.lifetime.start.p0(i64 8, ptr %5) #5
  %7 = load ptr, ptr %3, align 8, !tbaa !60
  %8 = icmp ne ptr %7, null
  br i1 %8, label %10, label %9

9:                                                ; preds = %2
  store i32 1, ptr %6, align 4
  br label %22

10:                                               ; preds = %2
  %11 = load ptr, ptr %3, align 8, !tbaa !60
  %12 = call i32 @BN_num_bytes(ptr noundef %11)
  %13 = zext i32 %12 to i64
  store i64 %13, ptr %5, align 8, !tbaa !23
  %14 = load ptr, ptr %4, align 8, !tbaa !61
  %15 = load i64, ptr %14, align 8, !tbaa !23
  %16 = load i64, ptr %5, align 8, !tbaa !23
  %17 = icmp ult i64 %15, %16
  br i1 %17, label %18, label %21

18:                                               ; preds = %10
  %19 = load i64, ptr %5, align 8, !tbaa !23
  %20 = load ptr, ptr %4, align 8, !tbaa !61
  store i64 %19, ptr %20, align 8, !tbaa !23
  br label %21

21:                                               ; preds = %18, %10
  store i32 0, ptr %6, align 4
  br label %22

22:                                               ; preds = %21, %9
  call void @llvm.lifetime.end.p0(i64 8, ptr %5) #5
  %23 = load i32, ptr %6, align 4
  switch i32 %23, label %25 [
    i32 0, label %24
    i32 1, label %24
  ]

24:                                               ; preds = %22, %22
  ret void

25:                                               ; preds = %22
  unreachable
}

; Function Attrs: nounwind uwtable
define internal i32 @do_dsa_print(ptr noundef %0, ptr noundef %1, i32 noundef %2, i32 noundef %3) #0 {
  %5 = alloca ptr, align 8
  %6 = alloca ptr, align 8
  %7 = alloca i32, align 4
  %8 = alloca i32, align 4
  %9 = alloca ptr, align 8
  %10 = alloca i32, align 4
  %11 = alloca i64, align 8
  %12 = alloca ptr, align 8
  %13 = alloca ptr, align 8
  %14 = alloca ptr, align 8
  store ptr %0, ptr %5, align 8, !tbaa !6
  store ptr %1, ptr %6, align 8, !tbaa !66
  store i32 %2, ptr %7, align 4, !tbaa !13
  store i32 %3, ptr %8, align 4, !tbaa !13
  call void @llvm.lifetime.start.p0(i64 8, ptr %9) #5
  store ptr null, ptr %9, align 8, !tbaa !28
  call void @llvm.lifetime.start.p0(i64 4, ptr %10) #5
  store i32 0, ptr %10, align 4, !tbaa !13
  call void @llvm.lifetime.start.p0(i64 8, ptr %11) #5
  store i64 0, ptr %11, align 8, !tbaa !23
  call void @llvm.lifetime.start.p0(i64 8, ptr %12) #5
  store ptr null, ptr %12, align 8, !tbaa !28
  call void @llvm.lifetime.start.p0(i64 8, ptr %13) #5
  call void @llvm.lifetime.start.p0(i64 8, ptr %14) #5
  store ptr null, ptr %13, align 8, !tbaa !60
  %15 = load i32, ptr %8, align 4, !tbaa !13
  %16 = icmp eq i32 %15, 2
  br i1 %16, label %17, label %21

17:                                               ; preds = %4
  %18 = load ptr, ptr %6, align 8, !tbaa !66
  %19 = getelementptr inbounds nuw %struct.dsa_st, ptr %18, i32 0, i32 5
  %20 = load ptr, ptr %19, align 8, !tbaa !68
  store ptr %20, ptr %13, align 8, !tbaa !60
  br label %21

21:                                               ; preds = %17, %4
  store ptr null, ptr %14, align 8, !tbaa !60
  %22 = load i32, ptr %8, align 4, !tbaa !13
  %23 = icmp sgt i32 %22, 0
  br i1 %23, label %24, label %28

24:                                               ; preds = %21
  %25 = load ptr, ptr %6, align 8, !tbaa !66
  %26 = getelementptr inbounds nuw %struct.dsa_st, ptr %25, i32 0, i32 4
  %27 = load ptr, ptr %26, align 8, !tbaa !70
  store ptr %27, ptr %14, align 8, !tbaa !60
  br label %28

28:                                               ; preds = %24, %21
  store ptr @.str.31, ptr %12, align 8, !tbaa !28
  %29 = load i32, ptr %8, align 4, !tbaa !13
  %30 = icmp eq i32 %29, 2
  br i1 %30, label %31, label %32

31:                                               ; preds = %28
  store ptr @.str.32, ptr %12, align 8, !tbaa !28
  br label %37

32:                                               ; preds = %28
  %33 = load i32, ptr %8, align 4, !tbaa !13
  %34 = icmp eq i32 %33, 1
  br i1 %34, label %35, label %36

35:                                               ; preds = %32
  store ptr @.str.33, ptr %12, align 8, !tbaa !28
  br label %36

36:                                               ; preds = %35, %32
  br label %37

37:                                               ; preds = %36, %31
  %38 = load ptr, ptr %6, align 8, !tbaa !66
  %39 = getelementptr inbounds nuw %struct.dsa_st, ptr %38, i32 0, i32 1
  %40 = load ptr, ptr %39, align 8, !tbaa !71
  call void @update_buflen(ptr noundef %40, ptr noundef %11)
  %41 = load ptr, ptr %6, align 8, !tbaa !66
  %42 = getelementptr inbounds nuw %struct.dsa_st, ptr %41, i32 0, i32 2
  %43 = load ptr, ptr %42, align 8, !tbaa !72
  call void @update_buflen(ptr noundef %43, ptr noundef %11)
  %44 = load ptr, ptr %6, align 8, !tbaa !66
  %45 = getelementptr inbounds nuw %struct.dsa_st, ptr %44, i32 0, i32 3
  %46 = load ptr, ptr %45, align 8, !tbaa !73
  call void @update_buflen(ptr noundef %46, ptr noundef %11)
  %47 = load ptr, ptr %13, align 8, !tbaa !60
  call void @update_buflen(ptr noundef %47, ptr noundef %11)
  %48 = load ptr, ptr %14, align 8, !tbaa !60
  call void @update_buflen(ptr noundef %48, ptr noundef %11)
  %49 = load i64, ptr %11, align 8, !tbaa !23
  %50 = add i64 %49, 10
  %51 = call noalias ptr @malloc(i64 noundef %50) #6
  store ptr %51, ptr %9, align 8, !tbaa !28
  %52 = load ptr, ptr %9, align 8, !tbaa !28
  %53 = icmp eq ptr %52, null
  br i1 %53, label %54, label %55

54:                                               ; preds = %37
  call void @ERR_put_error(i32 noundef 6, i32 noundef 0, i32 noundef 65, ptr noundef @.str.4, i32 noundef 286)
  br label %117

55:                                               ; preds = %37
  %56 = load ptr, ptr %13, align 8, !tbaa !60
  %57 = icmp ne ptr %56, null
  br i1 %57, label %58, label %74

58:                                               ; preds = %55
  %59 = load ptr, ptr %5, align 8, !tbaa !6
  %60 = load i32, ptr %7, align 4, !tbaa !13
  %61 = call i32 @BIO_indent(ptr noundef %59, i32 noundef %60, i32 noundef 128)
  %62 = icmp ne i32 %61, 0
  br i1 %62, label %63, label %72

63:                                               ; preds = %58
  %64 = load ptr, ptr %5, align 8, !tbaa !6
  %65 = load ptr, ptr %12, align 8, !tbaa !28
  %66 = load ptr, ptr %6, align 8, !tbaa !66
  %67 = getelementptr inbounds nuw %struct.dsa_st, ptr %66, i32 0, i32 1
  %68 = load ptr, ptr %67, align 8, !tbaa !71
  %69 = call i32 @BN_num_bits(ptr noundef %68)
  %70 = call i32 (ptr, ptr, ...) @BIO_printf(ptr noundef %64, ptr noundef @.str.34, ptr noundef %65, i32 noundef %69)
  %71 = icmp sle i32 %70, 0
  br i1 %71, label %72, label %73

72:                                               ; preds = %63, %58
  br label %117

73:                                               ; preds = %63
  br label %74

74:                                               ; preds = %73, %55
  %75 = load ptr, ptr %5, align 8, !tbaa !6
  %76 = load ptr, ptr %13, align 8, !tbaa !60
  %77 = load ptr, ptr %9, align 8, !tbaa !28
  %78 = load i32, ptr %7, align 4, !tbaa !13
  %79 = call i32 @bn_print(ptr noundef %75, ptr noundef @.str.35, ptr noundef %76, ptr noundef %77, i32 noundef %78)
  %80 = icmp ne i32 %79, 0
  br i1 %80, label %81, label %115

81:                                               ; preds = %74
  %82 = load ptr, ptr %5, align 8, !tbaa !6
  %83 = load ptr, ptr %14, align 8, !tbaa !60
  %84 = load ptr, ptr %9, align 8, !tbaa !28
  %85 = load i32, ptr %7, align 4, !tbaa !13
  %86 = call i32 @bn_print(ptr noundef %82, ptr noundef @.str.36, ptr noundef %83, ptr noundef %84, i32 noundef %85)
  %87 = icmp ne i32 %86, 0
  br i1 %87, label %88, label %115

88:                                               ; preds = %81
  %89 = load ptr, ptr %5, align 8, !tbaa !6
  %90 = load ptr, ptr %6, align 8, !tbaa !66
  %91 = getelementptr inbounds nuw %struct.dsa_st, ptr %90, i32 0, i32 1
  %92 = load ptr, ptr %91, align 8, !tbaa !71
  %93 = load ptr, ptr %9, align 8, !tbaa !28
  %94 = load i32, ptr %7, align 4, !tbaa !13
  %95 = call i32 @bn_print(ptr noundef %89, ptr noundef @.str.37, ptr noundef %92, ptr noundef %93, i32 noundef %94)
  %96 = icmp ne i32 %95, 0
  br i1 %96, label %97, label %115

97:                                               ; preds = %88
  %98 = load ptr, ptr %5, align 8, !tbaa !6
  %99 = load ptr, ptr %6, align 8, !tbaa !66
  %100 = getelementptr inbounds nuw %struct.dsa_st, ptr %99, i32 0, i32 2
  %101 = load ptr, ptr %100, align 8, !tbaa !72
  %102 = load ptr, ptr %9, align 8, !tbaa !28
  %103 = load i32, ptr %7, align 4, !tbaa !13
  %104 = call i32 @bn_print(ptr noundef %98, ptr noundef @.str.38, ptr noundef %101, ptr noundef %102, i32 noundef %103)
  %105 = icmp ne i32 %104, 0
  br i1 %105, label %106, label %115

106:                                              ; preds = %97
  %107 = load ptr, ptr %5, align 8, !tbaa !6
  %108 = load ptr, ptr %6, align 8, !tbaa !66
  %109 = getelementptr inbounds nuw %struct.dsa_st, ptr %108, i32 0, i32 3
  %110 = load ptr, ptr %109, align 8, !tbaa !73
  %111 = load ptr, ptr %9, align 8, !tbaa !28
  %112 = load i32, ptr %7, align 4, !tbaa !13
  %113 = call i32 @bn_print(ptr noundef %107, ptr noundef @.str.39, ptr noundef %110, ptr noundef %111, i32 noundef %112)
  %114 = icmp ne i32 %113, 0
  br i1 %114, label %116, label %115

115:                                              ; preds = %106, %97, %88, %81, %74
  br label %117

116:                                              ; preds = %106
  store i32 1, ptr %10, align 4, !tbaa !13
  br label %117

117:                                              ; preds = %116, %115, %72, %54
  %118 = load ptr, ptr %9, align 8, !tbaa !28
  call void @free(ptr noundef %118) #5
  %119 = load i32, ptr %10, align 4, !tbaa !13
  call void @llvm.lifetime.end.p0(i64 8, ptr %14) #5
  call void @llvm.lifetime.end.p0(i64 8, ptr %13) #5
  call void @llvm.lifetime.end.p0(i64 8, ptr %12) #5
  call void @llvm.lifetime.end.p0(i64 8, ptr %11) #5
  call void @llvm.lifetime.end.p0(i64 4, ptr %10) #5
  call void @llvm.lifetime.end.p0(i64 8, ptr %9) #5
  ret i32 %119
}