; Function Attrs: nounwind uwtable
define internal fastcc range(i32 0, 2) i32 @do_dsa_print(ptr noundef %0, ptr noundef readonly captures(none) %1, i32 noundef %2, i32 noundef range(i32 0, 3) %3) unnamed_addr #0 {
  %5 = icmp eq i32 %3, 2
  br i1 %5, label %.thread, label %8

.thread:                                          ; preds = %4
  %6 = getelementptr inbounds nuw i8, ptr %1, i64 40
  %7 = load ptr, ptr %6, align 8, !tbaa !51
  br label %9

8:                                                ; preds = %4
  %.not = icmp eq i32 %3, 0
  br i1 %.not, label %12, label %9

9:                                                ; preds = %.thread, %8
  %.03969 = phi ptr [ %7, %.thread ], [ null, %8 ]
  %10 = getelementptr inbounds nuw i8, ptr %1, i64 32
  %11 = load ptr, ptr %10, align 8, !tbaa !53
  br label %12

12:                                               ; preds = %9, %8
  %.03970 = phi ptr [ %.03969, %9 ], [ null, %8 ]
  %.0 = phi ptr [ %11, %9 ], [ null, %8 ]
  %13 = icmp eq i32 %3, 1
  %spec.select = select i1 %13, ptr @.str.33, ptr @.str.31
  %.040 = select i1 %5, ptr @.str.32, ptr %spec.select
  %14 = getelementptr inbounds nuw i8, ptr %1, i64 8
  %15 = load ptr, ptr %14, align 8, !tbaa !54
  %.not.i = icmp eq ptr %15, null
  br i1 %.not.i, label %update_buflen.exit, label %16

16:                                               ; preds = %12
  %17 = tail call i32 @BN_num_bytes(ptr noundef nonnull %15) #5
  %18 = zext i32 %17 to i64
  br label %update_buflen.exit

update_buflen.exit:                               ; preds = %16, %12
  %.066 = phi i64 [ 0, %12 ], [ %18, %16 ]
  %19 = getelementptr inbounds nuw i8, ptr %1, i64 16
  %20 = load ptr, ptr %19, align 8, !tbaa !55
  %.not.i53 = icmp eq ptr %20, null
  br i1 %.not.i53, label %update_buflen.exit54, label %21

21:                                               ; preds = %update_buflen.exit
  %22 = tail call i32 @BN_num_bytes(ptr noundef nonnull %20) #5
  %23 = zext i32 %22 to i64
  %spec.select74 = tail call i64 @llvm.umax.i64(i64 %.066, i64 %23)
  br label %update_buflen.exit54

update_buflen.exit54:                             ; preds = %21, %update_buflen.exit
  %.1 = phi i64 [ %.066, %update_buflen.exit ], [ %spec.select74, %21 ]
  %24 = getelementptr inbounds nuw i8, ptr %1, i64 24
  %25 = load ptr, ptr %24, align 8, !tbaa !56
  %.not.i55 = icmp eq ptr %25, null
  br i1 %.not.i55, label %update_buflen.exit56, label %26

26:                                               ; preds = %update_buflen.exit54
  %27 = tail call i32 @BN_num_bytes(ptr noundef nonnull %25) #5
  %28 = zext i32 %27 to i64
  %spec.select75 = tail call i64 @llvm.umax.i64(i64 %.1, i64 %28)
  br label %update_buflen.exit56

update_buflen.exit56:                             ; preds = %26, %update_buflen.exit54
  %.2 = phi i64 [ %.1, %update_buflen.exit54 ], [ %spec.select75, %26 ]
  %.not.i57 = icmp eq ptr %.03970, null
  br i1 %.not.i57, label %update_buflen.exit58, label %29

29:                                               ; preds = %update_buflen.exit56
  %30 = tail call i32 @BN_num_bytes(ptr noundef nonnull %.03970) #5
  %31 = zext i32 %30 to i64
  %spec.select76 = tail call i64 @llvm.umax.i64(i64 %.2, i64 %31)
  br label %update_buflen.exit58

update_buflen.exit58:                             ; preds = %29, %update_buflen.exit56
  %.3 = phi i64 [ %.2, %update_buflen.exit56 ], [ %spec.select76, %29 ]
  %.not.i59 = icmp eq ptr %.0, null
  br i1 %.not.i59, label %update_buflen.exit60, label %32

32:                                               ; preds = %update_buflen.exit58
  %33 = tail call i32 @BN_num_bytes(ptr noundef nonnull %.0) #5
  %34 = zext i32 %33 to i64
  %spec.select77 = tail call i64 @llvm.umax.i64(i64 %.3, i64 %34)
  br label %update_buflen.exit60

update_buflen.exit60:                             ; preds = %32, %update_buflen.exit58
  %.4 = phi i64 [ %.3, %update_buflen.exit58 ], [ %spec.select77, %32 ]
  %35 = add nuw nsw i64 %.4, 10
  %36 = tail call noalias ptr @malloc(i64 noundef %35) #6
  %37 = icmp eq ptr %36, null
  br i1 %37, label %38, label %39

38:                                               ; preds = %update_buflen.exit60
  tail call void @ERR_put_error(i32 noundef 6, i32 noundef 0, i32 noundef 65, ptr noundef nonnull @.str.4, i32 noundef 286) #5
  br label %58

39:                                               ; preds = %update_buflen.exit60
  br i1 %.not.i57, label %.split.thread, label %40

40:                                               ; preds = %39
  %41 = tail call i32 @BIO_indent(ptr noundef %0, i32 noundef %2, i32 noundef 128) #5
  %.not46 = icmp eq i32 %41, 0
  br i1 %.not46, label %58, label %42

42:                                               ; preds = %40
  %43 = load ptr, ptr %14, align 8, !tbaa !54
  %44 = tail call i32 @BN_num_bits(ptr noundef %43) #5
  %45 = tail call i32 (ptr, ptr, ...) @BIO_printf(ptr noundef %0, ptr noundef nonnull @.str.34, ptr noundef nonnull %.040, i32 noundef %44) #5
  %46 = icmp slt i32 %45, 1
  br i1 %46, label %58, label %.split

.split:                                           ; preds = %42
  %47 = tail call fastcc i32 @bn_print(ptr noundef %0, ptr noundef nonnull @.str.35, ptr noundef nonnull %.03970, ptr noundef nonnull %36, i32 noundef %2)
  %.not47 = icmp eq i32 %47, 0
  br i1 %.not47, label %58, label %.split.thread

.split.thread:                                    ; preds = %39, %.split
  %48 = tail call fastcc i32 @bn_print(ptr noundef %0, ptr noundef nonnull @.str.36, ptr noundef %.0, ptr noundef nonnull %36, i32 noundef %2)
  %.not48 = icmp eq i32 %48, 0
  br i1 %.not48, label %58, label %49

49:                                               ; preds = %.split.thread
  %50 = load ptr, ptr %14, align 8, !tbaa !54
  %51 = tail call fastcc i32 @bn_print(ptr noundef %0, ptr noundef nonnull @.str.37, ptr noundef %50, ptr noundef nonnull %36, i32 noundef %2)
  %.not49 = icmp eq i32 %51, 0
  br i1 %.not49, label %58, label %52

52:                                               ; preds = %49
  %53 = load ptr, ptr %19, align 8, !tbaa !55
  %54 = tail call fastcc i32 @bn_print(ptr noundef %0, ptr noundef nonnull @.str.38, ptr noundef %53, ptr noundef nonnull %36, i32 noundef %2)
  %.not50 = icmp eq i32 %54, 0
  br i1 %.not50, label %58, label %55

55:                                               ; preds = %52
  %56 = load ptr, ptr %24, align 8, !tbaa !56
  %57 = tail call fastcc i32 @bn_print(ptr noundef %0, ptr noundef nonnull @.str.39, ptr noundef %56, ptr noundef nonnull %36, i32 noundef %2)
  br label %58

58:                                               ; preds = %55, %.split, %.split.thread, %49, %52, %40, %42, %38
  %.041 = phi i32 [ 0, %38 ], [ 0, %42 ], [ 0, %52 ], [ 0, %49 ], [ 0, %.split.thread ], [ 0, %.split ], [ 0, %40 ], [ %57, %55 ]
  tail call void @free(ptr noundef %36) #5
  ret i32 %.041
}